LX51 LINKER/LOCATER V4.41                                                               01/22/2021  19:38:26  PAGE 1


LX51 LINKER/LOCATER V4.41, INVOKED BY:
D:\CHIPENVIRONMENT\KEILC51\C51\BIN\LX51.EXE .\OUT\DEBUG\DS1302.O TO .\OUT\DEBUG\LESSON1_1 PRINT (.\out\Debug\lesson1_1.m
>> ap) REMOVEUNUSED


CPU MODE:     8051 MODE
MEMORY MODEL: LARGE


INPUT MODULES INCLUDED:
  .\OUT\DEBUG\DS1302.O (DS1302)
         COMMENT TYPE 0: C51 V9.00
  D:\CHIPENVIRONMENT\KEILC51\C51\LIB\C51L.LIB (?C_STARTUP)
         COMMENT TYPE 1: A51 / ASM51 Assembler
  D:\CHIPENVIRONMENT\KEILC51\C51\LIB\C51L.LIB (?C?CLDPTR)
         COMMENT TYPE 1: A51 / ASM51 Assembler
  D:\CHIPENVIRONMENT\KEILC51\C51\LIB\C51L.LIB (?C?CLDOPTR)
         COMMENT TYPE 1: A51 / ASM51 Assembler
  D:\CHIPENVIRONMENT\KEILC51\C51\LIB\C51L.LIB (?C?CSTPTR)
         COMMENT TYPE 1: A51 / ASM51 Assembler
  D:\CHIPENVIRONMENT\KEILC51\C51\LIB\C51L.LIB (?C?CSTOPTR)
         COMMENT TYPE 1: A51 / ASM51 Assembler
  D:\CHIPENVIRONMENT\KEILC51\C51\LIB\C51L.LIB (?C?IMUL)
         COMMENT TYPE 1: A51 / ASM51 Assembler
  D:\CHIPENVIRONMENT\KEILC51\C51\LIB\C51L.LIB (?C?UIDIV)
         COMMENT TYPE 1: A51 / ASM51 Assembler
  D:\CHIPENVIRONMENT\KEILC51\C51\LIB\C51L.LIB (?C?IILDX)
         COMMENT TYPE 1: A51 / ASM51 Assembler
  D:\CHIPENVIRONMENT\KEILC51\C51\LIB\C51L.LIB (?C?ILDIX)
         COMMENT TYPE 1: A51 / ASM51 Assembler


ACTIVE MEMORY CLASSES OF MODULE:  .\OUT\DEBUG\LESSON1_1 (DS1302)

BASE        START       END         USED      MEMORY CLASS
==========================================================
C:000000H   C:000000H   C:00FFFFH   000979H   CODE
X:000000H   X:000000H   X:00FFFFH   00004CH   XDATA
I:000000H   I:000000H   I:0000FFH   000001H   IDATA
I:000000H   I:000000H   I:00007FH   000008H   DATA


MEMORY MAP OF MODULE:  .\OUT\DEBUG\LESSON1_1 (DS1302)


START     STOP      LENGTH    ALIGN  RELOC    MEMORY CLASS   SEGMENT NAME
=========================================================================

* * * * * * * * * * *   D A T A   M E M O R Y   * * * * * * * * * * * * *
000000H   000007H   000008H   ---    AT..     DATA           "REG BANK 0"
000008H   000008H   000001H   BYTE   UNIT     IDATA          ?STACK

* * * * * * * * * * *   C O D E   M E M O R Y   * * * * * * * * * * * * *
000000H   000002H   000003H   ---    OFFS..   CODE           ?CO??C_STARTUP?0
000003H   0007FFH   0007FDH   ---    ---      **GAP**
000800H   000A8EH   00028FH   BYTE   UNIT     CODE           ?PR?MAIN?DS1302
000A8FH   000BC3H   000135H   BYTE   UNIT     CODE           ?PR?_STRING_NUMTOSTRING?DS1302
000BC4H   000CD4H   000111H   BYTE   UNIT     CODE           ?PR?_STRING_MERGESTRING?DS1302
000CD5H   000DE1H   00010DH   BYTE   UNIT     CODE           ?C?LIB_CODE
000DE2H   000EDCH   0000FBH   BYTE   UNIT     CODE           ?PR?_LCD12864_SHOWSTRING?DS1302
000EDDH   000F55H   000079H   BYTE   UNIT     CODE           ?PR?LCD12864_CLEAR_GDRAM?DS1302
000F56H   000F96H   000041H   BYTE   UNIT     CODE           ?CO?DS1302
000F97H   000FD0H   00003AH   BYTE   UNIT     CODE           ?PR?_DS1302_READ_DATA?DS1302
000FD1H   001007H   000037H   BYTE   UNIT     CODE           ?PR?_DS1302_WRITE_DATA?DS1302
001008H   00103EH   000037H   BYTE   UNIT     CODE           ?PR?LCD12864_RECEIVEBYTE?DS1302
00103FH   00106AH   00002CH   BYTE   UNIT     CODE           ?PR?_STRING_STRLEN?DS1302
LX51 LINKER/LOCATER V4.41                                                             01/22/2021  19:38:26  PAGE 2


00106BH   001093H   000029H   BYTE   UNIT     CODE           ?PR?_LCD12864_SENDBYTE?DS1302
001094H   0010BAH   000027H   BYTE   UNIT     CODE           ?PR?_LCD12864_WRITE_DATA?DS1302
0010BBH   0010DCH   000022H   BYTE   UNIT     CODE           ?PR?_DS1302_CONVERT_DATA?DS1302
0010DDH   0010FEH   000022H   BYTE   UNIT     CODE           ?PR?_LCD12864_POS?DS1302
0010FFH   00111EH   000020H   BYTE   UNIT     CODE           ?PR?_DELAY1MS?DS1302
00111FH   00113AH   00001CH   BYTE   UNIT     CODE           ?PR?_LCD12864_WRITE_CMD?DS1302
00113BH   001151H   000017H   BYTE   UNIT     CODE           ?PR?LCD12864_INIT?DS1302
001152H   00115DH   00000CH   BYTE   UNIT     CODE           ?C_C51STARTUP
00115EH   001166H   000009H   BYTE   UNIT     CODE           ?PR?LCD12864_READ_STATUS?DS1302
001167H   00116EH   000008H   BYTE   UNIT     CODE           ?PR?LCD12864_CHECK_BUSY?DS1302
00116FH   001175H   000007H   BYTE   UNIT     CODE           ?PR?DS1302_INIT?DS1302

* * * * * * * * * * *  X D A T A   M E M O R Y  * * * * * * * * * * * * *
000000H   00002AH   00002BH   BYTE   UNIT     XDATA          ?XD?DS1302
00002BH   00004BH   000021H   BYTE   UNIT     XDATA          _XDATA_GROUP_

* * * * * * * * *   R E M O V E D     S E G M E N T S   * * * * * * * *
   *DEL*:           000005H   BYTE   UNIT     CODE           ?PR?LCD12864_CLEAR_DDRAM?DS1302
   *DEL*:           000087H   BYTE   UNIT     CODE           ?PR?_LCD12864_SET_CGRAM?DS1302
   *DEL*:           000006H   BYTE   UNIT     XDATA          ?XD?_LCD12864_SET_CGRAM?DS1302
   *DEL*:           000014H   BYTE   UNIT     CODE           ?PR?_LCD12864_DISPLAY_CGRAM?DS1302
   *DEL*:           000001H   BYTE   UNIT     XDATA          ?XD?_LCD12864_DISPLAY_CGRAM?DS1302
   *DEL*:           000094H   BYTE   UNIT     CODE           ?PR?_LCD12864_DISPLAY_IMAGE?DS1302
   *DEL*:           000005H   BYTE   UNIT     XDATA          ?XD?_LCD12864_DISPLAY_IMAGE?DS1302
   *DEL*:           000009H   BYTE   UNIT     CODE           ?PR?LCD12864_READ_DATA?DS1302



OVERLAY MAP OF MODULE:   .\OUT\DEBUG\LESSON1_1 (DS1302)


FUNCTION/MODULE                     XDATA_GROUP
--> CALLED FUNCTION/MODULE          START  STOP
===============================================
?C_C51STARTUP                       ----- -----
  +--> ?PR?MAIN?DS1302

MAIN/DS1302                         ----- -----
  +--> ?PR?LCD12864_INIT?DS1302
  +--> ?PR?DS1302_INIT?DS1302
  +--> ?PR?_DS1302_WRITE_DATA?DS1302
  +--> ?PR?_DS1302_READ_DATA?DS1302
  +--> ?PR?_DS1302_CONVERT_DATA?DS1302
  +--> ?PR?_STRING_NUMTOSTRING?DS1302
  +--> ?PR?_STRING_STRLEN?DS1302
  +--> ?CO?DS1302
  +--> ?PR?_STRING_MERGESTRING?DS1302
  +--> ?PR?_LCD12864_SHOWSTRING?DS1302
  +--> ?PR?_DELAY1MS?DS1302

LCD12864_INIT/DS1302                ----- -----
  +--> ?PR?LCD12864_CLEAR_GDRAM?DS1302
  +--> ?PR?_LCD12864_WRITE_CMD?DS1302

LCD12864_CLEAR_GDRAM/DS1302         002BH 002CH
  +--> ?PR?_LCD12864_WRITE_CMD?DS1302
  +--> ?PR?_LCD12864_WRITE_DATA?DS1302

_LCD12864_WRITE_CMD/DS1302          0033H 0033H
  +--> ?PR?LCD12864_CHECK_BUSY?DS1302
  +--> ?PR?_LCD12864_SENDBYTE?DS1302

LCD12864_CHECK_BUSY/DS1302          ----- -----
  +--> ?PR?LCD12864_READ_STATUS?DS1302

LX51 LINKER/LOCATER V4.41                                                             01/22/2021  19:38:26  PAGE 3


LCD12864_READ_STATUS/DS1302         ----- -----
  +--> ?PR?_LCD12864_SENDBYTE?DS1302
  +--> ?PR?LCD12864_RECEIVEBYTE?DS1302

_LCD12864_SENDBYTE/DS1302           ----- -----

LCD12864_RECEIVEBYTE/DS1302         ----- -----

_LCD12864_WRITE_DATA/DS1302         0033H 0033H
  +--> ?PR?LCD12864_CHECK_BUSY?DS1302
  +--> ?PR?_LCD12864_SENDBYTE?DS1302

DS1302_INIT/DS1302                  ----- -----
  +--> ?PR?_DS1302_WRITE_DATA?DS1302

_DS1302_WRITE_DATA/DS1302           ----- -----

_DS1302_READ_DATA/DS1302            ----- -----

_DS1302_CONVERT_DATA/DS1302         ----- -----

_STRING_NUMTOSTRING/DS1302          002BH 0035H
  +--> ?PR?_DS1302_CONVERT_DATA?DS1302

_STRING_STRLEN/DS1302               002BH 002DH

?CO?DS1302                          ----- -----

_STRING_MERGESTRING/DS1302          002BH 004BH

_LCD12864_SHOWSTRING/DS1302         002BH 0032H
  +--> ?PR?_LCD12864_POS?DS1302
  +--> ?PR?_LCD12864_WRITE_DATA?DS1302
  +--> ?PR?_LCD12864_WRITE_CMD?DS1302

_LCD12864_POS/DS1302                ----- -----
  +--> ?PR?_LCD12864_WRITE_CMD?DS1302

_DELAY1MS/DS1302                    ----- -----



PUBLIC SYMBOLS OF MODULE:  .\OUT\DEBUG\LESSON1_1 (DS1302)


      VALUE       CLASS    TYPE      PUBLIC SYMBOL NAME
      =================================================
      0200002BH   XDATA    BYTE      ?_LCD12864_showstring?BYTE
      0200002BH   XDATA    BYTE      ?_String_mergestring?BYTE
      01000CEEH   CODE     ---       ?C?CLDOPTR
      01000CD5H   CODE     ---       ?C?CLDPTR
      00000000H   NUMBER   ---       ?C?CODESEG
      01000D2DH   CODE     ---       ?C?CSTOPTR
      01000D1BH   CODE     ---       ?C?CSTPTR
      01000DB6H   CODE     ---       ?C?IILDX
      01000DCCH   CODE     ---       ?C?ILDIX
      01000D4FH   CODE     ---       ?C?IMUL
      01000D61H   CODE     ---       ?C?UIDIV
      00000000H   NUMBER   ---       ?C?XDATASEG
      01000800H   CODE     ---       ?C_START
      01000000H   CODE     ---       ?C_STARTUP
      010010FFH   CODE     ---       _delay1ms
      010010BBH   CODE     ---       _DS1302_convert_Data
      01000F97H   CODE     ---       _DS1302_Read_Data
      01000FD1H   CODE     ---       _DS1302_Write_Data
LX51 LINKER/LOCATER V4.41                                                             01/22/2021  19:38:26  PAGE 4


*DEL*:00000000H   CODE     ---       _LCD12864_display_CGRAM
*DEL*:00000000H   CODE     ---       _LCD12864_display_image
      010010DDH   CODE     ---       _LCD12864_pos
      01001077H   CODE     ---       _LCD12864_sendbyte
*DEL*:00000000H   CODE     ---       _LCD12864_SET_CGRAM
      01000DE2H   CODE     ---       _LCD12864_showstring
      01001123H   CODE     ---       _LCD12864_write_cmd
      010010A3H   CODE     ---       _LCD12864_write_data
      01000BD9H   CODE     ---       _String_mergestring
      01000A9AH   CODE     ---       _String_numtostring
      01001045H   CODE     ---       _String_strlen
      0100116FH   CODE     ---       DS1302_init
      01001167H   CODE     ---       LCD12864_check_busy
*DEL*:00000000H   CODE     ---       LCD12864_clear_DDRAM
      01000EDDH   CODE     ---       LCD12864_clear_GDRAM
      0100113BH   CODE     ---       LCD12864_init
*DEL*:00000000H   CODE     ---       LCD12864_read_data
      0100115EH   CODE     ---       LCD12864_read_status
      01001008H   CODE     ---       LCD12864_receivebyte
      01000800H   CODE     ---       main
      02000016H   XDATA    ---       str
      02000000H   XDATA    ---       str1
      02000015H   XDATA    BYTE      temp



SYMBOL TABLE OF MODULE:  .\OUT\DEBUG\LESSON1_1 (DS1302)

      VALUE       REP       CLASS    TYPE      SYMBOL NAME
      ====================================================
      ---         MODULE    ---      ---       DS1302
      02000016H   PUBLIC    XDATA    ---       str
      02000015H   PUBLIC    XDATA    BYTE      temp
      02000000H   PUBLIC    XDATA    ---       str1
      01000800H   PUBLIC    CODE     ---       main
      010010FFH   PUBLIC    CODE     ---       _delay1ms
      01001045H   PUBLIC    CODE     ---       _String_strlen
      0200002BH   PUBLIC    XDATA    BYTE      ?_String_mergestring?BYTE
      01000BD9H   PUBLIC    CODE     ---       _String_mergestring
      01000A9AH   PUBLIC    CODE     ---       _String_numtostring
      0100115EH   PUBLIC    CODE     ---       LCD12864_read_status
      01001008H   PUBLIC    CODE     ---       LCD12864_receivebyte
      01000EDDH   PUBLIC    CODE     ---       LCD12864_clear_GDRAM
      0200002BH   PUBLIC    XDATA    BYTE      ?_LCD12864_showstring?BYTE
      01000DE2H   PUBLIC    CODE     ---       _LCD12864_showstring
      01001167H   PUBLIC    CODE     ---       LCD12864_check_busy
      0100113BH   PUBLIC    CODE     ---       LCD12864_init
      010010DDH   PUBLIC    CODE     ---       _LCD12864_pos
      010010A3H   PUBLIC    CODE     ---       _LCD12864_write_data
      01001123H   PUBLIC    CODE     ---       _LCD12864_write_cmd
      01001077H   PUBLIC    CODE     ---       _LCD12864_sendbyte
      010010BBH   PUBLIC    CODE     ---       _DS1302_convert_Data
      01000F97H   PUBLIC    CODE     ---       _DS1302_Read_Data
      01000FD1H   PUBLIC    CODE     ---       _DS1302_Write_Data
      0100116FH   PUBLIC    CODE     ---       DS1302_init

      0100116FH   BLOCK     CODE     ---       LVL=0
      ---         BLOCKEND  ---      ---       LVL=0

      01000FD1H   BLOCK     CODE     ---       LVL=0
      01000FD1H   BLOCK     CODE     NEAR LAB  LVL=1
      00000006H   SYMBOL    DATA     VOID      i
      ---         BLOCKEND  ---      ---       LVL=1
      ---         BLOCKEND  ---      ---       LVL=0

LX51 LINKER/LOCATER V4.41                                                             01/22/2021  19:38:26  PAGE 5


      01000F97H   BLOCK     CODE     ---       LVL=0
      01000F97H   BLOCK     CODE     NEAR LAB  LVL=1
      00000005H   SYMBOL    DATA     VOID      i
      00000006H   SYMBOL    DATA     VOID      result
      ---         BLOCKEND  ---      ---       LVL=1
      ---         BLOCKEND  ---      ---       LVL=0

      010010BBH   BLOCK     CODE     ---       LVL=0
      ---         BLOCKEND  ---      ---       LVL=0

      0100106BH   BLOCK     CODE     ---       LVL=0
      ---         BLOCKEND  ---      ---       LVL=0

      01001077H   BLOCK     CODE     ---       LVL=0
      01001077H   BLOCK     CODE     NEAR LAB  LVL=1
      00000006H   SYMBOL    DATA     VOID      i
      ---         BLOCKEND  ---      ---       LVL=1
      ---         BLOCKEND  ---      ---       LVL=0

      0100111FH   BLOCK     CODE     ---       LVL=0
      ---         BLOCKEND  ---      ---       LVL=0

      01001123H   BLOCK     CODE     ---       LVL=0
      ---         BLOCKEND  ---      ---       LVL=0

      01001094H   BLOCK     CODE     ---       LVL=0
      ---         BLOCKEND  ---      ---       LVL=0

      010010A3H   BLOCK     CODE     ---       LVL=0
      ---         BLOCKEND  ---      ---       LVL=0

      010010DDH   BLOCK     CODE     ---       LVL=0
      ---         BLOCKEND  ---      ---       LVL=0

      0100113BH   BLOCK     CODE     ---       LVL=0
      ---         BLOCKEND  ---      ---       LVL=0

      01001167H   BLOCK     CODE     ---       LVL=0
      ---         BLOCKEND  ---      ---       LVL=0

      01000DE2H   BLOCK     CODE     ---       LVL=0
      01000DF3H   BLOCK     CODE     NEAR LAB  LVL=1
      02000032H   SYMBOL    XDATA    VOID      i
      ---         BLOCKEND  ---      ---       LVL=1
      ---         BLOCKEND  ---      ---       LVL=0

      01000EDDH   BLOCK     CODE     ---       LVL=0
      01000EDDH   BLOCK     CODE     NEAR LAB  LVL=1
      0200002BH   SYMBOL    XDATA    VOID      i
      0200002CH   SYMBOL    XDATA    VOID      j
      ---         BLOCKEND  ---      ---       LVL=1
      ---         BLOCKEND  ---      ---       LVL=0

      01001008H   BLOCK     CODE     ---       LVL=0
      01001008H   BLOCK     CODE     NEAR LAB  LVL=1
      00000007H   SYMBOL    DATA     VOID      tmp1
      00000006H   SYMBOL    DATA     VOID      tmp2
      00000005H   SYMBOL    DATA     VOID      i
      ---         BLOCKEND  ---      ---       LVL=1
      ---         BLOCKEND  ---      ---       LVL=0

      0100115EH   BLOCK     CODE     ---       LVL=0
      ---         BLOCKEND  ---      ---       LVL=0

      01000A8FH   BLOCK     CODE     ---       LVL=0
LX51 LINKER/LOCATER V4.41                                                             01/22/2021  19:38:26  PAGE 6


      ---         BLOCKEND  ---      ---       LVL=0

      01000A9AH   BLOCK     CODE     ---       LVL=0
      01000AADH   BLOCK     CODE     NEAR LAB  LVL=1
      02000030H   SYMBOL    XDATA    VOID      i
      02000032H   SYMBOL    XDATA    VOID      temp
      02000034H   SYMBOL    XDATA    VOID      count
      ---         BLOCKEND  ---      ---       LVL=1
      ---         BLOCKEND  ---      ---       LVL=0

      01000BC4H   BLOCK     CODE     ---       LVL=0
      ---         BLOCKEND  ---      ---       LVL=0

      01000BD9H   BLOCK     CODE     ---       LVL=0
      01000BE4H   BLOCK     CODE     NEAR LAB  LVL=1
      02000036H   SYMBOL    XDATA    VOID      temp
      0200004BH   SYMBOL    XDATA    VOID      i
      ---         BLOCKEND  ---      ---       LVL=1
      ---         BLOCKEND  ---      ---       LVL=0

      0100103FH   BLOCK     CODE     ---       LVL=0
      ---         BLOCKEND  ---      ---       LVL=0

      01001045H   BLOCK     CODE     ---       LVL=0
      01001050H   BLOCK     CODE     NEAR LAB  LVL=1
      00000007H   SYMBOL    DATA     VOID      i
      ---         BLOCKEND  ---      ---       LVL=1
      ---         BLOCKEND  ---      ---       LVL=0

      010010FFH   BLOCK     CODE     ---       LVL=0
      010010FFH   BLOCK     CODE     NEAR LAB  LVL=1
      00000004H   SYMBOL    DATA     VOID      i
      00000002H   SYMBOL    DATA     VOID      j
      ---         BLOCKEND  ---      ---       LVL=1
      ---         BLOCKEND  ---      ---       LVL=0

      01000800H   BLOCK     CODE     ---       LVL=0
      ---         BLOCKEND  ---      ---       LVL=0

      ---         MODULE    ---      ---       ?C_STARTUP
      01000000H   PUBLIC    CODE     ---       ?C_STARTUP

      ---         MODULE    ---      ---       ?C?CLDPTR
      01000CD5H   PUBLIC    CODE     ---       ?C?CLDPTR

      ---         MODULE    ---      ---       ?C?CLDOPTR
      01000CEEH   PUBLIC    CODE     ---       ?C?CLDOPTR

      ---         MODULE    ---      ---       ?C?CSTPTR
      01000D1BH   PUBLIC    CODE     ---       ?C?CSTPTR

      ---         MODULE    ---      ---       ?C?CSTOPTR
      01000D2DH   PUBLIC    CODE     ---       ?C?CSTOPTR

      ---         MODULE    ---      ---       ?C?IMUL
      01000D4FH   PUBLIC    CODE     ---       ?C?IMUL

      ---         MODULE    ---      ---       ?C?UIDIV
      01000D61H   PUBLIC    CODE     ---       ?C?UIDIV

      ---         MODULE    ---      ---       ?C?IILDX
      01000DB6H   PUBLIC    CODE     ---       ?C?IILDX

      ---         MODULE    ---      ---       ?C?ILDIX
      01000DCCH   PUBLIC    CODE     ---       ?C?ILDIX
LX51 LINKER/LOCATER V4.41                                                             01/22/2021  19:38:26  PAGE 7



******************************************************************************
* RESTRICTED VERSION WITH 0800H BYTE CODE SIZE LIMIT; USED: 099AH BYTE (120%) *
******************************************************************************

Program Size: data=9.0 xdata=76 const=0 code=2425
*** ERROR L250: CODE SIZE LIMIT IN RESTRICTED VERSION EXCEEDED
    LIMIT:   0800H BYTES
