LX51 LINKER/LOCATER V4.41                                                               11/16/2020  20:18:06  PAGE 1


LX51 LINKER/LOCATER V4.41, INVOKED BY:
D:\CHIPENVIRONMENT\KEIL\C51\BIN\LX51.EXE .\OUT\DEBUG\ºôÎüµÆ.O TO .\OUT\DEBUG\LESSON1_1 PRINT (.\out\Debug\lesson1_1.map)
>>  REMOVEUNUSED


CPU MODE:     8051 MODE
MEMORY MODEL: SMALL WITH FLOATING POINT ARITHMETIC


INPUT MODULES INCLUDED:
  .\OUT\DEBUG\ºôÎüµÆ.O (ºôÎüµÆ)
         COMMENT TYPE 0: C51 V9.00
  D:\CHIPENVIRONMENT\KEIL\C51\LIB\C51FPS.LIB (?C?FPMUL)
         COMMENT TYPE 1: A51 / ASM51 Assembler
  D:\CHIPENVIRONMENT\KEIL\C51\LIB\C51FPS.LIB (?C?FPDIV)
         COMMENT TYPE 1: A51 / ASM51 Assembler
  D:\CHIPENVIRONMENT\KEIL\C51\LIB\C51FPS.LIB (?C?FCAST)
         COMMENT TYPE 1: A51 / ASM51 Assembler
  D:\CHIPENVIRONMENT\KEIL\C51\LIB\C51FPS.LIB (?C?CASTF)
         COMMENT TYPE 1: A51 / ASM51 Assembler
  D:\CHIPENVIRONMENT\KEIL\C51\LIB\C51FPS.LIB (?C?FPGETOPN)
         COMMENT TYPE 1: A51 / ASM51 Assembler
  D:\CHIPENVIRONMENT\KEIL\C51\LIB\C51S.LIB (?C_STARTUP)
         COMMENT TYPE 1: A51 / ASM51 Assembler
  D:\CHIPENVIRONMENT\KEIL\C51\LIB\C51S.LIB (?C?SIDIV)
         COMMENT TYPE 1: A51 / ASM51 Assembler
  D:\CHIPENVIRONMENT\KEIL\C51\LIB\C51S.LIB (?C?LMUL)
         COMMENT TYPE 1: A51 / ASM51 Assembler
  D:\CHIPENVIRONMENT\KEIL\C51\LIB\C51S.LIB (?C?SLDIV)
         COMMENT TYPE 1: A51 / ASM51 Assembler
  D:\CHIPENVIRONMENT\KEIL\C51\LIB\C51S.LIB (?C?LNEG)
         COMMENT TYPE 1: A51 / ASM51 Assembler
  D:\CHIPENVIRONMENT\KEIL\C51\LIB\C51S.LIB (?C?SLCMP)
         COMMENT TYPE 1: A51 / ASM51 Assembler
  D:\CHIPENVIRONMENT\KEIL\C51\LIB\C51S.LIB (?C_INIT)
         COMMENT TYPE 1: A51 / ASM51 Assembler
  D:\CHIPENVIRONMENT\KEIL\C51\LIB\C51S.LIB (?C?UIDIV)
         COMMENT TYPE 1: A51 / ASM51 Assembler
  D:\CHIPENVIRONMENT\KEIL\C51\LIB\C51S.LIB (?C?ULDIV)
         COMMENT TYPE 1: A51 / ASM51 Assembler


ACTIVE MEMORY CLASSES OF MODULE:  .\OUT\DEBUG\LESSON1_1 (ºôÎüµÆ)

BASE        START       END         USED      MEMORY CLASS
==========================================================
C:000000H   C:000000H   C:00FFFFH   0007F2H   CODE
I:000000H   I:000000H   I:00007FH   000030H   DATA
I:000000H   I:000000H   I:0000FFH   000001H   IDATA


MEMORY MAP OF MODULE:  .\OUT\DEBUG\LESSON1_1 (ºôÎüµÆ)


START     STOP      LENGTH    ALIGN  RELOC    MEMORY CLASS   SEGMENT NAME
=========================================================================

* * * * * * * * * * *   D A T A   M E M O R Y   * * * * * * * * * * * * *
000000H   000007H   000008H   ---    AT..     DATA           "REG BANK 0"
000008H   00002FH   000028H   BYTE   UNIT     DATA           ?DT?ºôÎüµÆ
000030H   000030H   000001H   BYTE   UNIT     IDATA          ?STACK

* * * * * * * * * * *   C O D E   M E M O R Y   * * * * * * * * * * * * *
000000H   000002H   000003H   ---    OFFS..   CODE           ?CO??C_STARTUP?0
000003H   000005H   000003H   BYTE   OFFS..   CODE           ?ºôÎüµÆ?00003
000006H   00000AH   000005H   ---    ---      **GAP**
LX51 LINKER/LOCATER V4.41                                                             11/16/2020  20:18:06  PAGE 2


00000BH   00000DH   000003H   BYTE   OFFS..   CODE           ?ºôÎüµÆ?0000B
00000EH   0007FFH   0007F2H   ---    ---      **GAP**
000800H   000C30H   000431H   BYTE   UNIT     CODE           ?C?LIB_CODE
000C31H   000D2FH   0000FFH   BYTE   UNIT     CODE           ?PR?TIMER1INTERRUPT?ºôÎüµÆ
000D30H   000E03H   0000D4H   BYTE   UNIT     CODE           ?PR?SETUP?ºôÎüµÆ
000E04H   000EC6H   0000C3H   BYTE   UNIT     CODE           ?PR?RESET?ºôÎüµÆ
000EC7H   000F52H   00008CH   BYTE   UNIT     CODE           ?C_C51STARTUP
000F53H   000F96H   000044H   BYTE   UNIT     CODE           ?C?LDIV
000F97H   000FBBH   000025H   BYTE   UNIT     CODE           ?C_INITSEG
000FBCH   000FD4H   000019H   BYTE   UNIT     CODE           ?PR?MAIN?ºôÎüµÆ
000FD5H   000FE8H   000014H   BYTE   UNIT     CODE           ?PR?OUTSIDEINTERRUPT?ºôÎüµÆ



OVERLAY MAP OF MODULE:   .\OUT\DEBUG\LESSON1_1 (ºôÎüµÆ)


FUNCTION/MODULE               BIT_GROUP   DATA_GROUP 
--> CALLED FUNCTION/MODULE   START  STOP  START  STOP
=====================================================
OUTSIDEINTERRUPT/ºôÎüµÆ      ----- -----  ----- -----

*** NEW ROOT ***************

TIMER1INTERRUPT/ºôÎüµÆ       ----- -----  ----- -----
  +--> ?PR?RESET?ºôÎüµÆ

RESET/ºôÎüµÆ                 ----- -----  ----- -----

*** NEW ROOT ***************

?C_C51STARTUP                ----- -----  ----- -----
  +--> ?PR?MAIN?ºôÎüµÆ
  +--> ?C_INITSEG

MAIN/ºôÎüµÆ                  ----- -----  ----- -----
  +--> ?PR?SETUP?ºôÎüµÆ

SETUP/ºôÎüµÆ                 ----- -----  ----- -----

?C_INITSEG                   ----- -----  ----- -----



PUBLIC SYMBOLS OF MODULE:  .\OUT\DEBUG\LESSON1_1 (ºôÎüµÆ)


      VALUE       CLASS    TYPE      PUBLIC SYMBOL NAME
      =================================================
      010009E4H   CODE     ---       ?C?CASTF
      00000000H   NUMBER   ---       ?C?CODESEG
      010009B0H   CODE     ---       ?C?FCASTC
      010009ABH   CODE     ---       ?C?FCASTI
      010009A6H   CODE     ---       ?C?FCASTL
      01000909H   CODE     ---       ?C?FPDIV
      01000A1BH   CODE     ---       ?C?FPGETOPN2
      01000800H   CODE     ---       ?C?FPMUL
      01000A50H   CODE     ---       ?C?FPNANRESULT
      01000A5AH   CODE     ---       ?C?FPOVERFLOW
      01000A32H   CODE     ---       ?C?FPRESULT
      01000A46H   CODE     ---       ?C?FPRESULT2
      01000A57H   CODE     ---       ?C?FPUNDERFLOW
      01000A9BH   CODE     ---       ?C?LMUL
      01000AEAH   CODE     ---       ?C?LNEG
      01000A65H   CODE     ---       ?C?SIDIV
LX51 LINKER/LOCATER V4.41                                                             11/16/2020  20:18:06  PAGE 3


      01000AF8H   CODE     ---       ?C?SLCMP
      01000F53H   CODE     ---       ?C?SLDIV
      01000B0EH   CODE     ---       ?C?UIDIV
      01000B9FH   CODE     ---       ?C?ULDIV
      00000000H   NUMBER   ---       ?C?XDATASEG
      01000F0EH   CODE     ---       ?C_START
      01000000H   CODE     ---       ?C_STARTUP
      00000018H   DATA     LONG      ans
      0000002AH   DATA     ---       b
      0000002EH   DATA     INT       c
      00000026H   DATA     INT       count1
      00000028H   DATA     INT       count2
      0000000CH   DATA     INT       flag
      0000001CH   DATA     LONG      fps
      00000022H   DATA     FLOAT     jq
      00000016H   DATA     INT       led
      01000FBCH   CODE     ---       main
      01000FD5H   CODE     ---       Outsideinterrupt
      01000E04H   CODE     ---       reset
      01000D30H   CODE     ---       setup
      00000008H   DATA     FLOAT     speed
      00000020H   DATA     INT       T
      00000012H   DATA     LONG      time
      01000C31H   CODE     ---       timer1interrupt
      0000000EH   DATA     LONG      total



SYMBOL TABLE OF MODULE:  .\OUT\DEBUG\LESSON1_1 (ºôÎüµÆ)

      VALUE       REP       CLASS    TYPE      SYMBOL NAME
      ====================================================
      ---         MODULE    ---      ---       ºôÎüµÆ
      0000002EH   PUBLIC    DATA     INT       c
      0000002AH   PUBLIC    DATA     ---       b
      00000028H   PUBLIC    DATA     INT       count2
      00000026H   PUBLIC    DATA     INT       count1
      00000022H   PUBLIC    DATA     FLOAT     jq
      00000020H   PUBLIC    DATA     INT       T
      0000001CH   PUBLIC    DATA     LONG      fps
      00000018H   PUBLIC    DATA     LONG      ans
      00000016H   PUBLIC    DATA     INT       led
      00000012H   PUBLIC    DATA     LONG      time
      0000000EH   PUBLIC    DATA     LONG      total
      0000000CH   PUBLIC    DATA     INT       flag
      00000008H   PUBLIC    DATA     FLOAT     speed
      01000FBCH   PUBLIC    CODE     ---       main
      01000C31H   PUBLIC    CODE     ---       timer1interrupt
      01000FD5H   PUBLIC    CODE     ---       Outsideinterrupt
      01000E04H   PUBLIC    CODE     ---       reset
      01000D30H   PUBLIC    CODE     ---       setup

      01000D30H   BLOCK     CODE     ---       LVL=0
      ---         BLOCKEND  ---      ---       LVL=0

      01000E04H   BLOCK     CODE     ---       LVL=0
      ---         BLOCKEND  ---      ---       LVL=0

      01000FD5H   BLOCK     CODE     ---       LVL=0
      ---         BLOCKEND  ---      ---       LVL=0

      01000C31H   BLOCK     CODE     ---       LVL=0
      ---         BLOCKEND  ---      ---       LVL=0

      01000FBCH   BLOCK     CODE     ---       LVL=0
LX51 LINKER/LOCATER V4.41                                                             11/16/2020  20:18:06  PAGE 4


      ---         BLOCKEND  ---      ---       LVL=0

      ---         MODULE    ---      ---       ?C?FPMUL
      01000800H   PUBLIC    CODE     ---       ?C?FPMUL

      ---         MODULE    ---      ---       ?C?FPDIV
      01000909H   PUBLIC    CODE     ---       ?C?FPDIV

      ---         MODULE    ---      ---       ?C?FCAST
      010009B0H   PUBLIC    CODE     ---       ?C?FCASTC
      010009ABH   PUBLIC    CODE     ---       ?C?FCASTI
      010009A6H   PUBLIC    CODE     ---       ?C?FCASTL

      ---         MODULE    ---      ---       ?C?CASTF
      010009E4H   PUBLIC    CODE     ---       ?C?CASTF

      ---         MODULE    ---      ---       ?C?FPGETOPN
      01000A1BH   PUBLIC    CODE     ---       ?C?FPGETOPN2
      01000A50H   PUBLIC    CODE     ---       ?C?FPNANRESULT
      01000A5AH   PUBLIC    CODE     ---       ?C?FPOVERFLOW
      01000A32H   PUBLIC    CODE     ---       ?C?FPRESULT
      01000A46H   PUBLIC    CODE     ---       ?C?FPRESULT2
      01000A57H   PUBLIC    CODE     ---       ?C?FPUNDERFLOW

      ---         MODULE    ---      ---       ?C_STARTUP
      01000000H   PUBLIC    CODE     ---       ?C_STARTUP

      ---         MODULE    ---      ---       ?C?SIDIV
      01000A65H   PUBLIC    CODE     ---       ?C?SIDIV

      ---         MODULE    ---      ---       ?C?LMUL
      01000A9BH   PUBLIC    CODE     ---       ?C?LMUL

      ---         MODULE    ---      ---       ?C?SLDIV
      01000F53H   PUBLIC    CODE     ---       ?C?SLDIV

      ---         MODULE    ---      ---       ?C?LNEG
      01000AEAH   PUBLIC    CODE     ---       ?C?LNEG

      ---         MODULE    ---      ---       ?C?SLCMP
      01000AF8H   PUBLIC    CODE     ---       ?C?SLCMP

      ---         MODULE    ---      ---       ?C_INIT
      01000F0EH   PUBLIC    CODE     ---       ?C_START

      ---         MODULE    ---      ---       ?C?UIDIV
      01000B0EH   PUBLIC    CODE     ---       ?C?UIDIV

      ---         MODULE    ---      ---       ?C?ULDIV
      01000B9FH   PUBLIC    CODE     ---       ?C?ULDIV

******************************************************************************
* RESTRICTED VERSION WITH 0800H BYTE CODE SIZE LIMIT; USED: 02EDH BYTE (36%) *
******************************************************************************

Program Size: data=49.0 xdata=0 const=0 code=2034
LX51 RUN COMPLETE.  0 WARNING(S),  0 ERROR(S)
